#START_DEPENDENCY_GRAPH
0,0,
0,0,
#END_DEPENDENCY_GRAPH
#START_STATES
0:/g/g90/mitra3/work/for_cab/automaded_LA_24Oct/install/lib/libstracker.so.0(_ZN9Backtrace15getGNUBacktraceEv+0x70) [0x2aaabf62350c]|/g/g90/mitra3/work/for_cab/automaded_LA_24Oct/install/lib/libstracker.so.0(_ZN9Backtrace12getBacktraceEv+0x26) [0x2aaabf62342e]|/g/g90/mitra3/work/for_cab/automaded_LA_24Oct/install/lib/libstracker.so.0(_ZN18TransitionsManager10buildStateEv+0x19) [0x2aaabf61c0ad]|/g/g90/mitra3/work/for_cab/automaded_LA_24Oct/install/lib/libstracker.so.0(_ZN18TransitionsManager22transitionAfterMPICallEv+0x1a) [0x2aaabf61bfda]|/g/g90/mitra3/work/for_cab/automaded_LA_24Oct/install/lib/libstracker.so.0(_Z12afterMPICallPKc+0x1d) [0x2aaabf610155]|/g/g90/mitra3/work/for_cab/automaded_LA_24Oct/install/lib/libstracker.so.0(MPI_Waitall+0x86) [0x2aaabf60c365]|/g/g90/mitra3/work/AMG2006/AMG2006/test/amg2006(hypre_ParCSRCommHandleDestroy+0x60) [0x46d69d]|/g/g90/mitra3/work/AMG2006/AMG2006/test/amg2006(hypre_BoomerAMGRelax+0x6451) [0x45f471]|/g/g90/mitra3/work/AMG2006/AMG2006/test/amg2006(hypre_BoomerAMGRelaxIF+0xea) [0x462f3e]|/g/g90/mitra3/work/AMG2006/AMG2006/test/amg2006(hypre_BoomerAMGCycle+0x5cb) [0x42ae07]|/g/g90/mitra3/work/AMG2006/AMG2006/test/amg2006(hypre_BoomerAMGSolve+0x5b1) [0x423955]|/g/g90/mitra3/work/AMG2006/AMG2006/test/amg2006(HYPRE_BoomerAMGSolve+0x33) [0x41a51e]|/g/g90/mitra3/work/AMG2006/AMG2006/test/amg2006(hypre_PCGSolve+0x48d) [0x4d1282]|/g/g90/mitra3/work/AMG2006/AMG2006/test/amg2006(HYPRE_PCGSolve+0x33) [0x4d0422]|/g/g90/mitra3/work/AMG2006/AMG2006/test/amg2006(main+0x2728) [0x418f15]|/lib64/libc.so.6(__libc_start_main+0xfc) [0x2aaac0807cdc]
1:/g/g90/mitra3/work/for_cab/automaded_LA_24Oct/install/lib/libstracker.so.0(_ZN9Backtrace15getGNUBacktraceEv+0x70) [0x2aaabf62750c]|/g/g90/mitra3/work/for_cab/automaded_LA_24Oct/install/lib/libstracker.so.0(_ZN9Backtrace12getBacktraceEv+0x26) [0x2aaabf62742e]|/g/g90/mitra3/work/for_cab/automaded_LA_24Oct/install/lib/libstracker.so.0(_ZN18TransitionsManager10buildStateEv+0x19) [0x2aaabf6200ad]|/g/g90/mitra3/work/for_cab/automaded_LA_24Oct/install/lib/libstracker.so.0(_ZN18TransitionsManager22transitionAfterMPICallEv+0x1a) [0x2aaabf61ffda]|/g/g90/mitra3/work/for_cab/automaded_LA_24Oct/install/lib/libstracker.so.0(_Z12afterMPICallPKc+0x1d) [0x2aaabf614155]|/g/g90/mitra3/work/for_cab/automaded_LA_24Oct/install/lib/libstracker.so.0(MPI_Waitall+0x86) [0x2aaabf610365]|/g/g90/mitra3/work/AMG2006/AMG2006/test/amg2006(hypre_ParCSRCommHandleDestroy+0x60) [0x46d69d]|/g/g90/mitra3/work/AMG2006/AMG2006/test/amg2006(hypre_BoomerAMGRelax+0x6451) [0x45f471]|/g/g90/mitra3/work/AMG2006/AMG2006/test/amg2006(hypre_BoomerAMGRelaxIF+0xea) [0x462f3e]|/g/g90/mitra3/work/AMG2006/AMG2006/test/amg2006(hypre_BoomerAMGCycle+0x5cb) [0x42ae07]|/g/g90/mitra3/work/AMG2006/AMG2006/test/amg2006(hypre_BoomerAMGSolve+0x5b1) [0x423955]|/g/g90/mitra3/work/AMG2006/AMG2006/test/amg2006(HYPRE_BoomerAMGSolve+0x33) [0x41a51e]|/g/g90/mitra3/work/AMG2006/AMG2006/test/amg2006(hypre_PCGSolve+0x48d) [0x4d1282]|/g/g90/mitra3/work/AMG2006/AMG2006/test/amg2006(HYPRE_PCGSolve+0x33) [0x4d0422]|/g/g90/mitra3/work/AMG2006/AMG2006/test/amg2006(main+0x2728) [0x418f15]|/lib64/libc.so.6(__libc_start_main+0xfc) [0x2aaac080bcdc]
#END_STATES
#START_TASK_LOC
0:0-15:16
1:16-31:16
#END_TASK_LOC
#START_SOURCE_CODE_LINES
0,/g/g90/mitra3/work/for_cab/automaded_LA_24Oct/statetracker/src/backtrace.C:86|_ZN9Backtrace15getGNUBacktraceEv|*
/g/g90/mitra3/work/for_cab/automaded_LA_24Oct/statetracker/src/backtrace.C:56|_ZN9Backtrace12getBacktraceEv|*
/g/g90/mitra3/work/for_cab/automaded_LA_24Oct/statetracker/src/transitions.C:173|_ZN18TransitionsManager10buildStateEv|*
/g/g90/mitra3/work/for_cab/automaded_LA_24Oct/statetracker/src/transitions.C:135|_ZN18TransitionsManager22transitionAfterMPICallEv|*
/g/g90/mitra3/work/for_cab/automaded_LA_24Oct/statetracker/src/main_controller.C:166|_Z12afterMPICallPKc|*
/g/g90/mitra3/work/for_cab/automaded_LA_24Oct/statetracker/src/mpi_wrappers.h:7910|MPI_Waitall|*
/g/g90/mitra3/work/AMG2006/AMG2006/parcsr_mv/par_csr_communication.c:268|hypre_ParCSRCommHandleDestroy
/g/g90/mitra3/work/AMG2006/AMG2006/parcsr_ls/par_relax.c:1617|hypre_BoomerAMGRelax
/g/g90/mitra3/work/AMG2006/AMG2006/parcsr_ls/par_relax_interface.c:123|hypre_BoomerAMGRelaxIF
/g/g90/mitra3/work/AMG2006/AMG2006/parcsr_ls/par_cycle.c:263|hypre_BoomerAMGCycle
/g/g90/mitra3/work/AMG2006/AMG2006/parcsr_ls/par_amg_solve.c:237|hypre_BoomerAMGSolve
/g/g90/mitra3/work/AMG2006/AMG2006/parcsr_ls/HYPRE_parcsr_amg.c:89|HYPRE_BoomerAMGSolve
/g/g90/mitra3/work/AMG2006/AMG2006/krylov/pcg.c:413|hypre_PCGSolve
/g/g90/mitra3/work/AMG2006/AMG2006/krylov/HYPRE_pcg.c:88|HYPRE_PCGSolve
/g/g90/mitra3/work/AMG2006/AMG2006/test/amg2006.c:2453|main
??:0|__libc_start_main
1,/g/g90/mitra3/work/for_cab/automaded_LA_24Oct/statetracker/src/backtrace.C:86|_ZN9Backtrace15getGNUBacktraceEv|*
/g/g90/mitra3/work/for_cab/automaded_LA_24Oct/statetracker/src/backtrace.C:56|_ZN9Backtrace12getBacktraceEv|*
/g/g90/mitra3/work/for_cab/automaded_LA_24Oct/statetracker/src/transitions.C:173|_ZN18TransitionsManager10buildStateEv|*
/g/g90/mitra3/work/for_cab/automaded_LA_24Oct/statetracker/src/transitions.C:135|_ZN18TransitionsManager22transitionAfterMPICallEv|*
/g/g90/mitra3/work/for_cab/automaded_LA_24Oct/statetracker/src/main_controller.C:166|_Z12afterMPICallPKc|*
/g/g90/mitra3/work/for_cab/automaded_LA_24Oct/statetracker/src/mpi_wrappers.h:7910|MPI_Waitall|*
/g/g90/mitra3/work/AMG2006/AMG2006/parcsr_mv/par_csr_communication.c:268|hypre_ParCSRCommHandleDestroy
/g/g90/mitra3/work/AMG2006/AMG2006/parcsr_ls/par_relax.c:1617|hypre_BoomerAMGRelax
/g/g90/mitra3/work/AMG2006/AMG2006/parcsr_ls/par_relax_interface.c:123|hypre_BoomerAMGRelaxIF
/g/g90/mitra3/work/AMG2006/AMG2006/parcsr_ls/par_cycle.c:263|hypre_BoomerAMGCycle
/g/g90/mitra3/work/AMG2006/AMG2006/parcsr_ls/par_amg_solve.c:237|hypre_BoomerAMGSolve
/g/g90/mitra3/work/AMG2006/AMG2006/parcsr_ls/HYPRE_parcsr_amg.c:89|HYPRE_BoomerAMGSolve
/g/g90/mitra3/work/AMG2006/AMG2006/krylov/pcg.c:413|hypre_PCGSolve
/g/g90/mitra3/work/AMG2006/AMG2006/krylov/HYPRE_pcg.c:88|HYPRE_PCGSolve
/g/g90/mitra3/work/AMG2006/AMG2006/test/amg2006.c:2453|main
??:0|__libc_start_main
#END_SOURCE_CODE_LINES
#START_STATE_TYPES
0:COMPUTATION_CODE
1:COMPUTATION_CODE
#END_STATE_TYPES
