#START_DEPENDENCY_GRAPH
0,0,0,
1,0,0,
1,1,0,
#END_DEPENDENCY_GRAPH
#START_STATES
0:/g/g90/mitra3/work/code/automaded_main/install/lib/libstracker.so.0(_ZN9Backtrace15getGNUBacktraceEv+0x37) [0x2aaabf6bd5c7]|/g/g90/mitra3/work/code/automaded_main/install/lib/libstracker.so.0(_ZN9Backtrace12getBacktraceEv+0x77) [0x2aaabf6befb7]|/g/g90/mitra3/work/code/automaded_main/install/lib/libstracker.so.0(_ZN18TransitionsManager10buildStateEv+0x18) [0x2aaabf6ba5d8]|/g/g90/mitra3/work/code/automaded_main/install/lib/libstracker.so.0(_ZN18TransitionsManager22transitionAfterMPICallEv+0x25) [0x2aaabf6ba685]|/g/g90/mitra3/work/code/automaded_main/install/lib/libstracker.so.0(MPI_Allreduce+0x90) [0x2aaabf6b1e20]|/g/g90/mitra3/work/AMG2006/AMG2006/test/amg2006(hypre_ParVectorInnerProd+0x7b) [0x479f9b]|/g/g90/mitra3/work/AMG2006/AMG2006/test/amg2006(hypre_BoomerAMGSolve+0x4c9) [0x4236a9]|/g/g90/mitra3/work/AMG2006/AMG2006/test/amg2006(HYPRE_BoomerAMGSolve+0x33) [0x41a35a]|/g/g90/mitra3/work/AMG2006/AMG2006/test/amg2006(hypre_PCGSolve+0x48d) [0x4d11ba]|/g/g90/mitra3/work/AMG2006/AMG2006/test/amg2006(HYPRE_PCGSolve+0x33) [0x4d035a]|/g/g90/mitra3/work/AMG2006/AMG2006/test/amg2006(main+0x26ad) [0x418dfe]|/lib64/libc.so.6(__libc_start_main+0xfc) [0x2aaac081bcdc]
1:/g/g90/mitra3/work/code/automaded_main/install/lib/libstracker.so.0(_ZN9Backtrace15getGNUBacktraceEv+0x37) [0x2aaabf6bd5c7]|/g/g90/mitra3/work/code/automaded_main/install/lib/libstracker.so.0(_ZN9Backtrace12getBacktraceEv+0x77) [0x2aaabf6befb7]|/g/g90/mitra3/work/code/automaded_main/install/lib/libstracker.so.0(_ZN18TransitionsManager10buildStateEv+0x18) [0x2aaabf6ba5d8]|/g/g90/mitra3/work/code/automaded_main/install/lib/libstracker.so.0(_ZN18TransitionsManager23transitionBeforeMPICallEv+0x25) [0x2aaabf6ba755]|/g/g90/mitra3/work/code/automaded_main/install/lib/libstracker.so.0(_Z13beforeMPICallPKcz+0x12) [0x2aaabf6a13e2]|/g/g90/mitra3/work/code/automaded_main/install/lib/libstracker.so.0(MPI_Waitall+0x44) [0x2aaabf6a3754]|/g/g90/mitra3/work/AMG2006/AMG2006/test/amg2006(hypre_ParCSRCommHandleDestroy+0x60) [0x46d5d5]|/g/g90/mitra3/work/AMG2006/AMG2006/test/amg2006(hypre_BoomerAMGRelax+0x6451) [0x45f3a9]|/g/g90/mitra3/work/AMG2006/AMG2006/test/amg2006(hypre_BoomerAMGRelaxIF+0xea) [0x462e76]|/g/g90/mitra3/work/AMG2006/AMG2006/test/amg2006(hypre_BoomerAMGCycle+0x5cb) [0x42ac43]|/g/g90/mitra3/work/AMG2006/AMG2006/test/amg2006(hypre_BoomerAMGSolve+0x5b1) [0x423791]|/g/g90/mitra3/work/AMG2006/AMG2006/test/amg2006(HYPRE_BoomerAMGSolve+0x33) [0x41a35a]|/g/g90/mitra3/work/AMG2006/AMG2006/test/amg2006(hypre_PCGSolve+0x48d) [0x4d11ba]|/g/g90/mitra3/work/AMG2006/AMG2006/test/amg2006(HYPRE_PCGSolve+0x33) [0x4d035a]|/g/g90/mitra3/work/AMG2006/AMG2006/test/amg2006(main+0x26ad) [0x418dfe]|/lib64/libc.so.6(__libc_start_main+0xfc) [0x2aaac081bcdc]
2:/g/g90/mitra3/work/code/automaded_main/install/lib/libstracker.so.0(_ZN9Backtrace15getGNUBacktraceEv+0x37) [0x2aaabf6bd5c7]|/g/g90/mitra3/work/code/automaded_main/install/lib/libstracker.so.0(_ZN9Backtrace12getBacktraceEv+0x77) [0x2aaabf6befb7]|/g/g90/mitra3/work/code/automaded_main/install/lib/libstracker.so.0(_ZN18TransitionsManager10buildStateEv+0x18) [0x2aaabf6ba5d8]|/g/g90/mitra3/work/code/automaded_main/install/lib/libstracker.so.0(_ZN18TransitionsManager23transitionBeforeMPICallEv+0x25) [0x2aaabf6ba755]|/g/g90/mitra3/work/code/automaded_main/install/lib/libstracker.so.0(_Z13beforeMPICallPKcz+0x12) [0x2aaabf6a13e2]|/g/g90/mitra3/work/code/automaded_main/install/lib/libstracker.so.0(MPI_Waitall+0x44) [0x2aaabf6a3754]|/g/g90/mitra3/work/AMG2006/AMG2006/test/amg2006(hypre_ParCSRCommHandleDestroy+0x60) [0x46d5d5]|/g/g90/mitra3/work/AMG2006/AMG2006/test/amg2006(hypre_ParCSRMatrixMatvec+0x344) [0x478b04]|/g/g90/mitra3/work/AMG2006/AMG2006/test/amg2006(hypre_BoomerAMGCycle+0x6ea) [0x42ad62]|/g/g90/mitra3/work/AMG2006/AMG2006/test/amg2006(hypre_BoomerAMGSolve+0x5b1) [0x423791]|/g/g90/mitra3/work/AMG2006/AMG2006/test/amg2006(HYPRE_BoomerAMGSolve+0x33) [0x41a35a]|/g/g90/mitra3/work/AMG2006/AMG2006/test/amg2006(hypre_PCGSolve+0x48d) [0x4d11ba]|/g/g90/mitra3/work/AMG2006/AMG2006/test/amg2006(HYPRE_PCGSolve+0x33) [0x4d035a]|/g/g90/mitra3/work/AMG2006/AMG2006/test/amg2006(main+0x26ad) [0x418dfe]|/lib64/libc.so.6(__libc_start_main+0xfc) [0x2aaac081bcdc]
#END_STATES
#START_TASK_LOC
0:4:1
1:0,5-7:4
2:1-3:3
#END_TASK_LOC
#START_SOURCE_CODE_LINES
0,/g/g90/mitra3/work/code/automaded_main/statetracker/src/backtrace.C:76|_ZN9Backtrace15getGNUBacktraceEv|*
/g/g90/mitra3/work/code/automaded_main/statetracker/src/backtrace.C:47|_ZN9Backtrace12getBacktraceEv|*
/g/g90/mitra3/work/code/automaded_main/statetracker/src/transitions.C:173|_ZN18TransitionsManager10buildStateEv|*
/g/g90/mitra3/work/code/automaded_main/statetracker/src/transitions.C:135|_ZN18TransitionsManager22transitionAfterMPICallEv|*
/g/g90/mitra3/work/code/automaded_main/statetracker/src/mpi_wrappers.h:781|MPI_Allreduce|*
/g/g90/mitra3/work/AMG2006/AMG2006/parcsr_mv/par_vector.c:464|hypre_ParVectorInnerProd
/g/g90/mitra3/work/AMG2006/AMG2006/parcsr_ls/par_amg_solve.c:203|hypre_BoomerAMGSolve
/g/g90/mitra3/work/AMG2006/AMG2006/parcsr_ls/HYPRE_parcsr_amg.c:89|HYPRE_BoomerAMGSolve
/g/g90/mitra3/work/AMG2006/AMG2006/krylov/pcg.c:413|hypre_PCGSolve
/g/g90/mitra3/work/AMG2006/AMG2006/krylov/HYPRE_pcg.c:88|HYPRE_PCGSolve
/g/g90/mitra3/work/AMG2006/AMG2006/test/amg2006.c:2444|main
??:0|__libc_start_main
1,/g/g90/mitra3/work/code/automaded_main/statetracker/src/backtrace.C:76|_ZN9Backtrace15getGNUBacktraceEv|*
/g/g90/mitra3/work/code/automaded_main/statetracker/src/backtrace.C:47|_ZN9Backtrace12getBacktraceEv|*
/g/g90/mitra3/work/code/automaded_main/statetracker/src/transitions.C:173|_ZN18TransitionsManager10buildStateEv|*
/g/g90/mitra3/work/code/automaded_main/statetracker/src/transitions.C:94|_ZN18TransitionsManager23transitionBeforeMPICallEv|*
/g/g90/mitra3/work/code/automaded_main/statetracker/src/main_controller.C:156|_Z13beforeMPICallPKcz|*
/g/g90/mitra3/work/code/automaded_main/statetracker/src/mpi_wrappers.h:7908|MPI_Waitall|*
/g/g90/mitra3/work/AMG2006/AMG2006/parcsr_mv/par_csr_communication.c:268|hypre_ParCSRCommHandleDestroy
/g/g90/mitra3/work/AMG2006/AMG2006/parcsr_ls/par_relax.c:1617|hypre_BoomerAMGRelax
/g/g90/mitra3/work/AMG2006/AMG2006/parcsr_ls/par_relax_interface.c:123|hypre_BoomerAMGRelaxIF
/g/g90/mitra3/work/AMG2006/AMG2006/parcsr_ls/par_cycle.c:263|hypre_BoomerAMGCycle
/g/g90/mitra3/work/AMG2006/AMG2006/parcsr_ls/par_amg_solve.c:237|hypre_BoomerAMGSolve
/g/g90/mitra3/work/AMG2006/AMG2006/parcsr_ls/HYPRE_parcsr_amg.c:89|HYPRE_BoomerAMGSolve
/g/g90/mitra3/work/AMG2006/AMG2006/krylov/pcg.c:413|hypre_PCGSolve
/g/g90/mitra3/work/AMG2006/AMG2006/krylov/HYPRE_pcg.c:88|HYPRE_PCGSolve
/g/g90/mitra3/work/AMG2006/AMG2006/test/amg2006.c:2444|main
??:0|__libc_start_main
2,/g/g90/mitra3/work/code/automaded_main/statetracker/src/backtrace.C:76|_ZN9Backtrace15getGNUBacktraceEv|*
/g/g90/mitra3/work/code/automaded_main/statetracker/src/backtrace.C:47|_ZN9Backtrace12getBacktraceEv|*
/g/g90/mitra3/work/code/automaded_main/statetracker/src/transitions.C:173|_ZN18TransitionsManager10buildStateEv|*
/g/g90/mitra3/work/code/automaded_main/statetracker/src/transitions.C:94|_ZN18TransitionsManager23transitionBeforeMPICallEv|*
/g/g90/mitra3/work/code/automaded_main/statetracker/src/main_controller.C:156|_Z13beforeMPICallPKcz|*
/g/g90/mitra3/work/code/automaded_main/statetracker/src/mpi_wrappers.h:7908|MPI_Waitall|*
/g/g90/mitra3/work/AMG2006/AMG2006/parcsr_mv/par_csr_communication.c:268|hypre_ParCSRCommHandleDestroy
/g/g90/mitra3/work/AMG2006/AMG2006/parcsr_mv/par_csr_matvec.c:171|hypre_ParCSRMatrixMatvec
/g/g90/mitra3/work/AMG2006/AMG2006/parcsr_ls/par_cycle.c:309|hypre_BoomerAMGCycle
/g/g90/mitra3/work/AMG2006/AMG2006/parcsr_ls/par_amg_solve.c:237|hypre_BoomerAMGSolve
/g/g90/mitra3/work/AMG2006/AMG2006/parcsr_ls/HYPRE_parcsr_amg.c:89|HYPRE_BoomerAMGSolve
/g/g90/mitra3/work/AMG2006/AMG2006/krylov/pcg.c:413|hypre_PCGSolve
/g/g90/mitra3/work/AMG2006/AMG2006/krylov/HYPRE_pcg.c:88|HYPRE_PCGSolve
/g/g90/mitra3/work/AMG2006/AMG2006/test/amg2006.c:2444|main
??:0|__libc_start_main
#END_SOURCE_CODE_LINES
#START_STATE_TYPES
0:COMPUTATION_CODE
1:COMMUNICATION_CODE
2:COMMUNICATION_CODE
#END_STATE_TYPES
