#START_DEPENDENCY_GRAPH
0,0,
0,0,
#END_DEPENDENCY_GRAPH
#START_STATES
0:/g/g90/mitra3/work/code/automaded_main/install/lib/libstracker.so.0(_ZN9Backtrace15getGNUBacktraceEv+0x37) [0x2aaac09f8f07]|/g/g90/mitra3/work/code/automaded_main/install/lib/libstracker.so.0(_ZN9Backtrace12getBacktraceEv+0x77) [0x2aaac09fa8f7]|/g/g90/mitra3/work/code/automaded_main/install/lib/libstracker.so.0(_ZN18TransitionsManager10buildStateEv+0x18) [0x2aaac09f5bc8]|/g/g90/mitra3/work/code/automaded_main/install/lib/libstracker.so.0(_ZN18TransitionsManager23transitionBeforeMPICallE13OperationTypeRK9MPIParams+0x3d) [0x2aaac09f5eed]|/g/g90/mitra3/work/code/automaded_main/install/lib/libstracker.so.0(_Z13beforeMPICallPKcz+0x4b) [0x2aaac09dcd9b]|/g/g90/mitra3/work/code/automaded_main/install/lib/libstracker.so.0(MPI_Allreduce+0x6b) [0x2aaac09ed73b]|/g/g90/mitra3/work/LAMMPS/lammps-22Jun07/bench/lmp_g++(_ZN9LAMMPS_NS6Thermo13compute_epairEv+0x148) [0x5bc65e]|/g/g90/mitra3/work/LAMMPS/lammps-22Jun07/bench/lmp_g++(_ZN9LAMMPS_NS6Thermo7computeEi+0x2d7) [0x5b7227]|/g/g90/mitra3/work/LAMMPS/lammps-22Jun07/bench/lmp_g++(_ZN9LAMMPS_NS6Output5setupEi+0x27e) [0x5386e4]|/g/g90/mitra3/work/LAMMPS/lammps-22Jun07/bench/lmp_g++(_ZN9LAMMPS_NS6Verlet5setupEv+0x433) [0x5c7813]|/g/g90/mitra3/work/LAMMPS/lammps-22Jun07/bench/lmp_g++(_ZN9LAMMPS_NS3Run7commandEiPPc+0x760) [0x5adb14]|/g/g90/mitra3/work/LAMMPS/lammps-22Jun07/bench/lmp_g++(_ZN9LAMMPS_NS5Input15execute_commandEv+0x1236) [0x50fc80]|/g/g90/mitra3/work/LAMMPS/lammps-22Jun07/bench/lmp_g++(_ZN9LAMMPS_NS5Input4fileEv+0x463) [0x50dfdd]|/g/g90/mitra3/work/LAMMPS/lammps-22Jun07/bench/lmp_g++(main+0xab) [0x517ce3]|/lib64/libc.so.6(__libc_start_main+0xfc) [0x2aaac24cccdc]
1:/g/g90/mitra3/work/code/automaded_main/install/lib/libstracker.so.0(_ZN9Backtrace15getGNUBacktraceEv+0x37) [0x2aaac09f9f07]|/g/g90/mitra3/work/code/automaded_main/install/lib/libstracker.so.0(_ZN9Backtrace12getBacktraceEv+0x77) [0x2aaac09fb8f7]|/g/g90/mitra3/work/code/automaded_main/install/lib/libstracker.so.0(_ZN18TransitionsManager10buildStateEv+0x18) [0x2aaac09f6bc8]|/g/g90/mitra3/work/code/automaded_main/install/lib/libstracker.so.0(_ZN18TransitionsManager22transitionAfterMPICallEv+0x25) [0x2aaac09f6e05]|/g/g90/mitra3/work/code/automaded_main/install/lib/libstracker.so.0(MPI_Allreduce+0x90) [0x2aaac09ee760]|/g/g90/mitra3/work/LAMMPS/lammps-22Jun07/bench/lmp_g++(_ZN9LAMMPS_NS15ComputePressure14virial_computeEi+0xf6) [0x478776]|/g/g90/mitra3/work/LAMMPS/lammps-22Jun07/bench/lmp_g++(_ZN9LAMMPS_NS15ComputePressure14compute_scalarEv+0x7d) [0x4784b3]|/g/g90/mitra3/work/LAMMPS/lammps-22Jun07/bench/lmp_g++(_ZN9LAMMPS_NS6Thermo7computeEi+0xe2) [0x5b7032]|/g/g90/mitra3/work/LAMMPS/lammps-22Jun07/bench/lmp_g++(_ZN9LAMMPS_NS6Output5setupEi+0x27e) [0x5386e4]|/g/g90/mitra3/work/LAMMPS/lammps-22Jun07/bench/lmp_g++(_ZN9LAMMPS_NS6Verlet5setupEv+0x433) [0x5c7813]|/g/g90/mitra3/work/LAMMPS/lammps-22Jun07/bench/lmp_g++(_ZN9LAMMPS_NS3Run7commandEiPPc+0x760) [0x5adb14]|/g/g90/mitra3/work/LAMMPS/lammps-22Jun07/bench/lmp_g++(_ZN9LAMMPS_NS5Input15execute_commandEv+0x1236) [0x50fc80]|/g/g90/mitra3/work/LAMMPS/lammps-22Jun07/bench/lmp_g++(_ZN9LAMMPS_NS5Input4fileEv+0x463) [0x50dfdd]|/g/g90/mitra3/work/LAMMPS/lammps-22Jun07/bench/lmp_g++(main+0xab) [0x517ce3]|/lib64/libc.so.6(__libc_start_main+0xfc) [0x2aaac24cdcdc]
#END_STATES
#START_TASK_LOC
0:0-10,12-15:15
1:11:1
#END_TASK_LOC
#START_SOURCE_CODE_LINES
0,/g/g90/mitra3/work/code/automaded_main/statetracker/src/backtrace.C:76|_ZN9Backtrace15getGNUBacktraceEv|*
/g/g90/mitra3/work/code/automaded_main/statetracker/src/backtrace.C:47|_ZN9Backtrace12getBacktraceEv|*
/g/g90/mitra3/work/code/automaded_main/statetracker/src/transitions.C:173|_ZN18TransitionsManager10buildStateEv|*
/g/g90/mitra3/work/code/automaded_main/statetracker/src/transitions.C:94|_ZN18TransitionsManager23transitionBeforeMPICallE13OperationTypeRK9MPIParams|*
/g/g90/mitra3/work/code/automaded_main/statetracker/src/main_controller.C:155|_Z13beforeMPICallPKcz|*
/g/g90/mitra3/work/code/automaded_main/statetracker/src/mpi_wrappers.h:779|MPI_Allreduce|*
/g/g90/mitra3/work/LAMMPS/lammps-22Jun07/src/Obj_g++/thermo.cpp:1189|_ZN9LAMMPS_NS6Thermo13compute_epairEv
/g/g90/mitra3/work/LAMMPS/lammps-22Jun07/src/Obj_g++/thermo.cpp:322|_ZN9LAMMPS_NS6Thermo7computeEi
/g/g90/mitra3/work/LAMMPS/lammps-22Jun07/src/Obj_g++/output.cpp:159|_ZN9LAMMPS_NS6Output5setupEi
/g/g90/mitra3/work/LAMMPS/lammps-22Jun07/src/Obj_g++/verlet.cpp:159|_ZN9LAMMPS_NS6Verlet5setupEv
/g/g90/mitra3/work/LAMMPS/lammps-22Jun07/src/Obj_g++/run.cpp:131|_ZN9LAMMPS_NS3Run7commandEiPPc
/g/g90/mitra3/work/LAMMPS/lammps-22Jun07/src/Obj_g++/style.h:66|_ZN9LAMMPS_NS5Input15execute_commandEv
/g/g90/mitra3/work/LAMMPS/lammps-22Jun07/src/Obj_g++/input.cpp:187|_ZN9LAMMPS_NS5Input4fileEv
/g/g90/mitra3/work/LAMMPS/lammps-22Jun07/src/Obj_g++/main.cpp:33|main
??:0|__libc_start_main
1,/g/g90/mitra3/work/code/automaded_main/statetracker/src/backtrace.C:76|_ZN9Backtrace15getGNUBacktraceEv|*
/g/g90/mitra3/work/code/automaded_main/statetracker/src/backtrace.C:47|_ZN9Backtrace12getBacktraceEv|*
/g/g90/mitra3/work/code/automaded_main/statetracker/src/transitions.C:173|_ZN18TransitionsManager10buildStateEv|*
/g/g90/mitra3/work/code/automaded_main/statetracker/src/transitions.C:135|_ZN18TransitionsManager22transitionAfterMPICallEv|*
/g/g90/mitra3/work/code/automaded_main/statetracker/src/mpi_wrappers.h:781|MPI_Allreduce|*
/g/g90/mitra3/work/LAMMPS/lammps-22Jun07/src/Obj_g++/compute_pressure.cpp:170|_ZN9LAMMPS_NS15ComputePressure14virial_computeEi
/g/g90/mitra3/work/LAMMPS/lammps-22Jun07/src/Obj_g++/compute_pressure.cpp:132|_ZN9LAMMPS_NS15ComputePressure14compute_scalarEv
/g/g90/mitra3/work/LAMMPS/lammps-22Jun07/src/Obj_g++/thermo.cpp:305|_ZN9LAMMPS_NS6Thermo7computeEi
/g/g90/mitra3/work/LAMMPS/lammps-22Jun07/src/Obj_g++/output.cpp:159|_ZN9LAMMPS_NS6Output5setupEi
/g/g90/mitra3/work/LAMMPS/lammps-22Jun07/src/Obj_g++/verlet.cpp:159|_ZN9LAMMPS_NS6Verlet5setupEv
/g/g90/mitra3/work/LAMMPS/lammps-22Jun07/src/Obj_g++/run.cpp:131|_ZN9LAMMPS_NS3Run7commandEiPPc
/g/g90/mitra3/work/LAMMPS/lammps-22Jun07/src/Obj_g++/style.h:66|_ZN9LAMMPS_NS5Input15execute_commandEv
/g/g90/mitra3/work/LAMMPS/lammps-22Jun07/src/Obj_g++/input.cpp:187|_ZN9LAMMPS_NS5Input4fileEv
/g/g90/mitra3/work/LAMMPS/lammps-22Jun07/src/Obj_g++/main.cpp:33|main
??:0|__libc_start_main
#END_SOURCE_CODE_LINES
#START_STATE_TYPES
0:COMMUNICATION_CODE
1:COMPUTATION_CODE
#END_STATE_TYPES
